; Function Attrs: null_pointer_is_valid sspstrong uwtable
define internal void @dissect_pfcp_dns_sever_address(ptr noundef %0, ptr noundef %1, ptr noundef %2, ptr noundef %3, i16 noundef zeroext %4, i8 zeroext %5, ptr readnone captures(none) %6) #0 {
  %8 = load i32, ptr @hf_pfcp_node_id_ipv4, align 4
  %9 = tail call ptr @proto_tree_add_item(ptr noundef %2, i32 noundef %8, ptr noundef %0, i32 noundef 0, i32 noundef 4, i32 noundef 0)
  %10 = getelementptr inbounds nuw i8, ptr %1, i64 408
  %11 = load ptr, ptr %10, align 8
  %12 = tail call ptr @tvb_address_to_str(ptr noundef %11, ptr noundef %0, i32 noundef 2, i32 noundef 0)
  tail call void (ptr, ptr, ...) @proto_item_append_text(ptr noundef %3, ptr noundef nonnull @.str.2654, ptr noundef %12)
  %13 = icmp ugt i16 %4, 4
  br i1 %13, label %14, label %16

14:                                               ; preds = %7
  %15 = tail call ptr @proto_tree_add_expert(ptr noundef %2, ptr noundef %1, ptr noundef nonnull @ei_pfcp_ie_data_not_decoded, ptr noundef %0, i32 noundef 4, i32 noundef -1)
  br label %16

16:                                               ; preds = %14, %7
  ret void
}